target datalayout = "e-m:e-p270:32:32-p271:32:32-p272:64:64-i64:64-i128:128-f80:128-n8:16:32:64-S128"
target triple = "x86_64-pc-linux-gnu"

%struct.ARKodeMRIStepMemRec = type { ptr, ptr, i32, i32, i32, i32, i32, ptr, ptr, i32, i32, i32, ptr, i32, i32, i32, i32, i32, ptr, ptr, ptr, ptr, ptr, ptr, ptr, i32, ptr, i32, ptr, double, double, double, double, i32, double, double, double, double, double, double, i32, i64, i32, i32, i32, ptr, ptr, ptr, ptr, ptr, ptr, ptr, ptr, ptr, double, double, double, i64, i64, i64, i64, i64, i64, i32, i32, i32, double, double, ptr, i32, ptr, ptr }

@.str = private unnamed_addr constant [126 x i8] c"generated/home/dtcxzyw/WorkSpace/Projects/compilers/llvm-opt-benchmark/bench/sundials/sundials/src/arkode/arkode_mristep_io.c\00", align 1
@__func__.mriStep_SetMaxNonlinIters = private unnamed_addr constant [26 x i8] c"mriStep_SetMaxNonlinIters\00", align 1
@.str.6 = private unnamed_addr constant [40 x i8] c"No SUNNonlinearSolver object is present\00", align 1
@.str.7 = private unnamed_addr constant [50 x i8] c"Error setting maxcor in SUNNonlinearSolver object\00", align 1

; Function Attrs: nounwind uwtable
define i32 @mriStep_SetMaxNonlinIters(ptr noundef %0, i32 noundef %1) #0 {
  %3 = alloca i32, align 4
  %4 = alloca ptr, align 8
  %5 = alloca i32, align 4
  %6 = alloca ptr, align 8
  %7 = alloca i32, align 4
  %8 = alloca i32, align 4
  store ptr %0, ptr %4, align 8, !tbaa !11
  store i32 %1, ptr %5, align 4, !tbaa !9
  call void @llvm.lifetime.start.p0(i64 8, ptr %6) #4
  call void @llvm.lifetime.start.p0(i64 4, ptr %7) #4
  %9 = load ptr, ptr %4, align 8, !tbaa !11
  %10 = call i32 @mriStep_AccessStepMem(ptr noundef %9, ptr noundef @__func__.mriStep_SetMaxNonlinIters, ptr noundef %6)
  store i32 %10, ptr %7, align 4, !tbaa !9
  %11 = load i32, ptr %7, align 4, !tbaa !9
  %12 = icmp ne i32 %11, 0
  br i1 %12, label %13, label %15

13:                                               ; preds = %2
  %14 = load i32, ptr %7, align 4, !tbaa !9
  store i32 %14, ptr %3, align 4
  store i32 1, ptr %8, align 4
  br label %45

15:                                               ; preds = %2
  %16 = load ptr, ptr %6, align 8, !tbaa !13
  %17 = getelementptr inbounds nuw %struct.ARKodeMRIStepMemRec, ptr %16, i32 0, i32 26
  %18 = load ptr, ptr %17, align 8, !tbaa !74
  %19 = icmp eq ptr %18, null
  br i1 %19, label %20, label %22

20:                                               ; preds = %15
  %21 = load ptr, ptr %4, align 8, !tbaa !11
  call void (ptr, i32, i32, ptr, ptr, ptr, ...) @arkProcessError(ptr noundef %21, i32 noundef -32, i32 noundef 613, ptr noundef @__func__.mriStep_SetMaxNonlinIters, ptr noundef @.str, ptr noundef @.str.6)
  store i32 -22, ptr %3, align 4
  store i32 1, ptr %8, align 4
  br label %45

22:                                               ; preds = %15
  %23 = load i32, ptr %5, align 4, !tbaa !9
  %24 = icmp sle i32 %23, 0
  br i1 %24, label %25, label %28

25:                                               ; preds = %22
  %26 = load ptr, ptr %6, align 8, !tbaa !13
  %27 = getelementptr inbounds nuw %struct.ARKodeMRIStepMemRec, ptr %26, i32 0, i32 42
  store i32 3, ptr %27, align 8, !tbaa !64
  br label %32

28:                                               ; preds = %22
  %29 = load i32, ptr %5, align 4, !tbaa !9
  %30 = load ptr, ptr %6, align 8, !tbaa !13
  %31 = getelementptr inbounds nuw %struct.ARKodeMRIStepMemRec, ptr %30, i32 0, i32 42
  store i32 %29, ptr %31, align 8, !tbaa !64
  br label %32

32:                                               ; preds = %28, %25
  %33 = load ptr, ptr %6, align 8, !tbaa !13
  %34 = getelementptr inbounds nuw %struct.ARKodeMRIStepMemRec, ptr %33, i32 0, i32 26
  %35 = load ptr, ptr %34, align 8, !tbaa !74
  %36 = load ptr, ptr %6, align 8, !tbaa !13
  %37 = getelementptr inbounds nuw %struct.ARKodeMRIStepMemRec, ptr %36, i32 0, i32 42
  %38 = load i32, ptr %37, align 8, !tbaa !64
  %39 = call i32 @SUNNonlinSolSetMaxIters(ptr noundef %35, i32 noundef %38)
  store i32 %39, ptr %7, align 4, !tbaa !9
  %40 = load i32, ptr %7, align 4, !tbaa !9
  %41 = icmp ne i32 %40, 0
  br i1 %41, label %42, label %44

42:                                               ; preds = %32
  %43 = load ptr, ptr %4, align 8, !tbaa !11
  call void (ptr, i32, i32, ptr, ptr, ptr, ...) @arkProcessError(ptr noundef %43, i32 noundef -32, i32 noundef 626, ptr noundef @__func__.mriStep_SetMaxNonlinIters, ptr noundef @.str, ptr noundef @.str.7)
  store i32 -32, ptr %3, align 4
  store i32 1, ptr %8, align 4
  br label %45

44:                                               ; preds = %32
  store i32 0, ptr %3, align 4
  store i32 1, ptr %8, align 4
  br label %45

45:                                               ; preds = %44, %42, %20, %13
  call void @llvm.lifetime.end.p0(i64 4, ptr %7) #4
  call void @llvm.lifetime.end.p0(i64 8, ptr %6) #4
  %46 = load i32, ptr %3, align 4
  ret i32 %46
}