; Function Attrs: nounwind uwtable
define i32 @mriStep_SetMaxNonlinIters(ptr noundef %0, i32 noundef %1) local_unnamed_addr #0 {
  %3 = alloca ptr, align 8
  call void @llvm.lifetime.start.p0(i64 8, ptr nonnull %3) #5
  %4 = call i32 @mriStep_AccessStepMem(ptr noundef %0, ptr noundef nonnull @__func__.mriStep_SetMaxNonlinIters, ptr noundef nonnull %3) #5
  %.not = icmp eq i32 %4, 0
  br i1 %.not, label %5, label %16

5:                                                ; preds = %2
  %6 = load ptr, ptr %3, align 8, !tbaa !8
  %7 = getelementptr inbounds nuw i8, ptr %6, i64 168
  %8 = load ptr, ptr %7, align 8, !tbaa !66
  %9 = icmp eq ptr %8, null
  br i1 %9, label %10, label %11

10:                                               ; preds = %5
  call void (ptr, i32, i32, ptr, ptr, ptr, ...) @arkProcessError(ptr noundef %0, i32 noundef -32, i32 noundef 613, ptr noundef nonnull @__func__.mriStep_SetMaxNonlinIters, ptr noundef nonnull @.str, ptr noundef nonnull @.str.6) #5
  br label %16

11:                                               ; preds = %5
  %12 = icmp slt i32 %1, 1
  %spec.select = select i1 %12, i32 3, i32 %1
  %13 = getelementptr inbounds nuw i8, ptr %6, i64 296
  store i32 %spec.select, ptr %13, align 8, !tbaa !56
  %14 = call i32 @SUNNonlinSolSetMaxIters(ptr noundef nonnull %8, i32 noundef %spec.select) #5
  %.not10 = icmp eq i32 %14, 0
  br i1 %.not10, label %16, label %15

15:                                               ; preds = %11
  call void (ptr, i32, i32, ptr, ptr, ptr, ...) @arkProcessError(ptr noundef %0, i32 noundef -32, i32 noundef 626, ptr noundef nonnull @__func__.mriStep_SetMaxNonlinIters, ptr noundef nonnull @.str, ptr noundef nonnull @.str.7) #5
  br label %16

16:                                               ; preds = %11, %2, %15, %10
  %.0 = phi i32 [ -22, %10 ], [ -32, %15 ], [ %4, %2 ], [ 0, %11 ]
  call void @llvm.lifetime.end.p0(i64 8, ptr nonnull %3) #5
  ret i32 %.0
}